target datalayout = "e-m:e-p270:32:32-p271:32:32-p272:64:64-i64:64-i128:128-f80:128-n8:16:32:64-S128"
target triple = "x86_64-pc-linux-gnu"

@.str.18 = private unnamed_addr constant [36 x i8] c"../openssl/test/conf_include_test.c\00", align 1
@rel_conf_file = internal global ptr null, align 8
@.str.24 = private unnamed_addr constant [14 x i8] c"rel_conf_file\00", align 1
@libctx = internal global ptr null, align 8
@.str.77 = private unnamed_addr constant [7 x i8] c"libctx\00", align 1
@.str.78 = private unnamed_addr constant [22 x i8] c"Failed to load config\00", align 1
@.str.79 = private unnamed_addr constant [8 x i8] c"default\00", align 1
@.str.80 = private unnamed_addr constant [28 x i8] c"Default provider is missing\00", align 1
@.str.81 = private unnamed_addr constant [7 x i8] c"legacy\00", align 1
@.str.82 = private unnamed_addr constant [27 x i8] c"Legacy provider is missing\00", align 1

; Function Attrs: nounwind uwtable
define internal i32 @test_available_providers() #0 {
  %1 = alloca i32, align 4
  %2 = call ptr @OSSL_LIB_CTX_new()
  store ptr %2, ptr @libctx, align 8, !tbaa !22
  %3 = load ptr, ptr @libctx, align 8, !tbaa !22
  %4 = call i32 @test_ptr(ptr noundef @.str.18, i32 noundef 208, ptr noundef @.str.77, ptr noundef %3)
  %5 = icmp ne i32 %4, 0
  br i1 %5, label %7, label %6

6:                                                ; preds = %0
  store i32 0, ptr %1, align 4
  br label %28

7:                                                ; preds = %0
  %8 = load ptr, ptr @rel_conf_file, align 8, !tbaa !4
  %9 = call i32 @test_ptr(ptr noundef @.str.18, i32 noundef 211, ptr noundef @.str.24, ptr noundef %8)
  %10 = icmp ne i32 %9, 0
  br i1 %10, label %11, label %16

11:                                               ; preds = %7
  %12 = load ptr, ptr @libctx, align 8, !tbaa !22
  %13 = load ptr, ptr @rel_conf_file, align 8, !tbaa !4
  %14 = call i32 @OSSL_LIB_CTX_load_config(ptr noundef %12, ptr noundef %13)
  %15 = icmp ne i32 %14, 0
  br i1 %15, label %17, label %16

16:                                               ; preds = %11, %7
  call void (ptr, ...) @test_note(ptr noundef @.str.78)
  store i32 0, ptr %1, align 4
  br label %28

17:                                               ; preds = %11
  %18 = load ptr, ptr @libctx, align 8, !tbaa !22
  %19 = call i32 @OSSL_PROVIDER_available(ptr noundef %18, ptr noundef @.str.79)
  %20 = icmp ne i32 %19, 1
  br i1 %20, label %21, label %22

21:                                               ; preds = %17
  call void (ptr, ...) @test_note(ptr noundef @.str.80)
  store i32 0, ptr %1, align 4
  br label %28

22:                                               ; preds = %17
  %23 = load ptr, ptr @libctx, align 8, !tbaa !22
  %24 = call i32 @OSSL_PROVIDER_available(ptr noundef %23, ptr noundef @.str.81)
  %25 = icmp ne i32 %24, 1
  br i1 %25, label %26, label %27

26:                                               ; preds = %22
  call void (ptr, ...) @test_note(ptr noundef @.str.82)
  store i32 0, ptr %1, align 4
  br label %28

27:                                               ; preds = %22
  store i32 1, ptr %1, align 4
  br label %28

28:                                               ; preds = %27, %26, %21, %16, %6
  %29 = load i32, ptr %1, align 4
  ret i32 %29
}