; Function Attrs: nounwind uwtable
define internal range(i32 0, 2) i32 @test_available_providers() #1 {
  %1 = tail call ptr @OSSL_LIB_CTX_new() #8
  store ptr %1, ptr @libctx, align 8, !tbaa !20
  %2 = tail call i32 @test_ptr(ptr noundef nonnull @.str.18, i32 noundef 208, ptr noundef nonnull @.str.77, ptr noundef %1) #8
  %.not = icmp eq i32 %2, 0
  br i1 %.not, label %16, label %3

3:                                                ; preds = %0
  %4 = load ptr, ptr @rel_conf_file, align 8, !tbaa !15
  %5 = tail call i32 @test_ptr(ptr noundef nonnull @.str.18, i32 noundef 211, ptr noundef nonnull @.str.24, ptr noundef %4) #8
  %.not1 = icmp eq i32 %5, 0
  br i1 %.not1, label %.sink.split, label %6

6:                                                ; preds = %3
  %7 = load ptr, ptr @libctx, align 8, !tbaa !20
  %8 = load ptr, ptr @rel_conf_file, align 8, !tbaa !15
  %9 = tail call i32 @OSSL_LIB_CTX_load_config(ptr noundef %7, ptr noundef %8) #8
  %.not2 = icmp eq i32 %9, 0
  br i1 %.not2, label %.sink.split, label %10

10:                                               ; preds = %6
  %11 = load ptr, ptr @libctx, align 8, !tbaa !20
  %12 = tail call i32 @OSSL_PROVIDER_available(ptr noundef %11, ptr noundef nonnull @.str.79) #8
  %.not3 = icmp eq i32 %12, 1
  br i1 %.not3, label %13, label %.sink.split

13:                                               ; preds = %10
  %14 = load ptr, ptr @libctx, align 8, !tbaa !20
  %15 = tail call i32 @OSSL_PROVIDER_available(ptr noundef %14, ptr noundef nonnull @.str.81) #8
  %.not4 = icmp eq i32 %15, 1
  br i1 %.not4, label %16, label %.sink.split

.sink.split:                                      ; preds = %13, %10, %3, %6
  %.str.82.sink = phi ptr [ @.str.78, %6 ], [ @.str.78, %3 ], [ @.str.80, %10 ], [ @.str.82, %13 ]
  tail call void (ptr, ...) @test_note(ptr noundef nonnull %.str.82.sink) #8
  br label %16

16:                                               ; preds = %.sink.split, %13, %0
  %.0 = phi i32 [ 0, %0 ], [ 1, %13 ], [ 0, %.sink.split ]
  ret i32 %.0
}